; Function Attrs: nounwind uwtable
define void @png_warning(ptr noalias noundef %0, ptr noundef %1) local_unnamed_addr #5 {
  %.not = icmp eq ptr %0, null
  br i1 %.not, label %.split, label %3

3:                                                ; preds = %2
  %4 = load i8, ptr %1, align 1, !tbaa !24
  %5 = icmp eq i8 %4, 35
  br i1 %5, label %.preheader, label %.thread20

.preheader:                                       ; preds = %3, %9
  %indvars.iv = phi i64 [ %indvars.iv.next, %9 ], [ 1, %3 ]
  %6 = getelementptr inbounds nuw i8, ptr %1, i64 %indvars.iv
  %7 = load i8, ptr %6, align 1, !tbaa !24
  %8 = icmp eq i8 %7, 32
  br i1 %8, label %.thread20.loopexit, label %9

9:                                                ; preds = %.preheader
  %indvars.iv.next = add nuw nsw i64 %indvars.iv, 1
  %exitcond.not = icmp eq i64 %indvars.iv.next, 15
  br i1 %exitcond.not, label %.thread20.loopexit, label %.preheader, !llvm.loop !28

.split:                                           ; preds = %2
  tail call fastcc void @png_default_warning(ptr noundef %1)
  br label %15

.thread20.loopexit:                               ; preds = %.preheader, %9
  %.022.ph = phi i64 [ 15, %9 ], [ %indvars.iv, %.preheader ]
  %10 = and i64 %.022.ph, 4294967295
  br label %.thread20

.thread20:                                        ; preds = %.thread20.loopexit, %3
  %.022 = phi i64 [ 0, %3 ], [ %10, %.thread20.loopexit ]
  %11 = getelementptr inbounds nuw i8, ptr %0, i64 232
  %12 = load ptr, ptr %11, align 8, !tbaa !29
  %.not17 = icmp eq ptr %12, null
  %13 = getelementptr inbounds nuw i8, ptr %1, i64 %.022
  br i1 %.not17, label %.split14, label %14

.split14:                                         ; preds = %.thread20
  tail call fastcc void @png_default_warning(ptr noundef nonnull %13)
  br label %15

14:                                               ; preds = %.thread20
  tail call void %12(ptr noundef nonnull %0, ptr noundef nonnull %13) #21
  br label %15

15:                                               ; preds = %.split, %.split14, %14
  ret void
}